; Function Attrs: mustprogress uwtable
define hidden noundef i64 @_ZNK3ue215RoseProgramHashclERKNS_11RoseProgramE(ptr noundef nonnull readnone align 1 captures(none) dereferenceable(1) %0, ptr noundef nonnull readonly align 8 captures(none) dereferenceable(24) %1) local_unnamed_addr #0 align 2 {
  %3 = load ptr, ptr %1, align 8
  %4 = getelementptr inbounds nuw i8, ptr %1, i64 8
  %5 = load ptr, ptr %4, align 8
  %.not9 = icmp eq ptr %3, %5
  br i1 %.not9, label %._crit_edge, label %.lr.ph

._crit_edge:                                      ; preds = %.lr.ph, %2
  %.0.lcssa = phi i64 [ 0, %2 ], [ %13, %.lr.ph ]
  ret i64 %.0.lcssa

.lr.ph:                                           ; preds = %2, %.lr.ph
  %.011 = phi i64 [ %13, %.lr.ph ], [ 0, %2 ]
  %.sroa.04.010 = phi ptr [ %14, %.lr.ph ], [ %3, %2 ]
  %6 = load ptr, ptr %.sroa.04.010, align 8
  %7 = load ptr, ptr %6, align 8
  %8 = getelementptr inbounds nuw i8, ptr %7, i64 24
  %9 = load ptr, ptr %8, align 8
  %10 = tail call noundef i64 %9(ptr noundef nonnull align 8 dereferenceable(8) %6)
  %11 = mul i64 %10, 814605021516865831
  %12 = xor i64 %11, %.011
  %13 = add i64 %12, 3571081485394615273
  %14 = getelementptr inbounds nuw i8, ptr %.sroa.04.010, i64 8
  %.not = icmp eq ptr %14, %5
  br i1 %.not, label %._crit_edge, label %.lr.ph
}